; Function Attrs: mustprogress uwtable
define hidden void @_ZN3nla7grobner16add_dependenciesERNS_9new_lemmaERKN2dd6solver8equationE(ptr noundef nonnull readnone align 8 captures(none) dereferenceable(1448) %0, ptr noundef nonnull align 8 dereferenceable(16) %1, ptr noundef nonnull readonly align 8 captures(none) dereferenceable(32) %2) local_unnamed_addr #4 align 2 personality ptr @__gxx_personality_v0 {
  %4 = alloca %"class.lp::explanation", align 8
  call void @llvm.lifetime.start.p0(i64 32, ptr nonnull %4) #26
  store ptr null, ptr %4, align 8, !tbaa !372
  %5 = invoke noalias noundef ptr @_ZN6memory8allocateEm(i64 noundef 96)
          to label %.lr.ph.i.i.i.i.i.i.i.i unwind label %9

.lr.ph.i.i.i.i.i.i.i.i:                           ; preds = %3, %.lr.ph.i.i.i.i.i.i.i.i
  %.08.i.i.i.i.i.i.i.i = phi ptr [ %8, %.lr.ph.i.i.i.i.i.i.i.i ], [ %5, %3 ]
  %.057.i.i.i.i.i.i.i.i = phi i32 [ %7, %.lr.ph.i.i.i.i.i.i.i.i ], [ 8, %3 ]
  store i32 0, ptr %.08.i.i.i.i.i.i.i.i, align 4, !tbaa !375
  %6 = getelementptr inbounds nuw i8, ptr %.08.i.i.i.i.i.i.i.i, i64 4
  store i32 0, ptr %6, align 4, !tbaa !377
  %7 = add nsw i32 %.057.i.i.i.i.i.i.i.i, -1
  %8 = getelementptr inbounds nuw i8, ptr %.08.i.i.i.i.i.i.i.i, i64 12
  %.not.i.i.i.i.i.i.i.i = icmp eq i32 %7, 0
  br i1 %.not.i.i.i.i.i.i.i.i, label %_ZN2lp11explanationC2Ev.exit, label %.lr.ph.i.i.i.i.i.i.i.i, !llvm.loop !378

common.resume:                                    ; preds = %40, %9
  %common.resume.op = phi { ptr, i32 } [ %10, %9 ], [ %41, %40 ]
  resume { ptr, i32 } %common.resume.op

9:                                                ; preds = %3
  %10 = landingpad { ptr, i32 }
          cleanup
  call void @_ZN6vectorISt4pairIj8rationalELb1EjED2Ev(ptr noundef nonnull align 8 dereferenceable(32) %4) #26
  br label %common.resume

_ZN2lp11explanationC2Ev.exit:                     ; preds = %.lr.ph.i.i.i.i.i.i.i.i
  %11 = getelementptr inbounds nuw i8, ptr %4, i64 8
  store ptr %5, ptr %11, align 8, !tbaa !379
  %12 = getelementptr inbounds nuw i8, ptr %4, i64 16
  store i32 8, ptr %12, align 8, !tbaa !382
  %13 = getelementptr inbounds nuw i8, ptr %4, i64 20
  store i32 0, ptr %13, align 4, !tbaa !383
  %14 = getelementptr inbounds nuw i8, ptr %4, i64 24
  store i32 0, ptr %14, align 8, !tbaa !384
  invoke void @_ZN3nla7grobner7explainERKN2dd6solver8equationERN2lp11explanationE(ptr nonnull align 8 poison, ptr noundef nonnull align 8 dereferenceable(32) %2, ptr noundef nonnull align 8 dereferenceable(32) %4)
          to label %15 unwind label %40

15:                                               ; preds = %_ZN2lp11explanationC2Ev.exit
  %16 = invoke noundef nonnull align 8 dereferenceable(16) ptr @_ZN3nla9new_lemmaaNERKN2lp11explanationE(ptr noundef nonnull align 8 dereferenceable(16) %1, ptr noundef nonnull align 8 dereferenceable(32) %4)
          to label %17 unwind label %40

17:                                               ; preds = %15
  %18 = load ptr, ptr %11, align 8, !tbaa !379
  %19 = icmp eq ptr %18, null
  br i1 %19, label %_ZN14core_hashtableI18default_hash_entryIjE6u_hash4u_eqED2Ev.exit.i, label %20

20:                                               ; preds = %17
  invoke void @_ZN6memory10deallocateEPv(ptr noundef nonnull %18)
          to label %_ZN14core_hashtableI18default_hash_entryIjE6u_hash4u_eqED2Ev.exit.i unwind label %21

21:                                               ; preds = %20
  %22 = landingpad { ptr, i32 }
          catch ptr null
  %23 = extractvalue { ptr, i32 } %22, 0
  call void @__clang_call_terminate(ptr %23) #27
  unreachable

_ZN14core_hashtableI18default_hash_entryIjE6u_hash4u_eqED2Ev.exit.i: ; preds = %20, %17
  store ptr null, ptr %11, align 8, !tbaa !379
  %24 = load ptr, ptr %4, align 8, !tbaa !372
  %.not.i.i.i = icmp eq ptr %24, null
  br i1 %.not.i.i.i, label %_ZN2lp11explanationD2Ev.exit, label %_ZNK6vectorISt4pairIj8rationalELb1EjE4sizeEv.exit.i.i.i.i

_ZNK6vectorISt4pairIj8rationalELb1EjE4sizeEv.exit.i.i.i.i: ; preds = %_ZN14core_hashtableI18default_hash_entryIjE6u_hash4u_eqED2Ev.exit.i
  %25 = getelementptr inbounds i8, ptr %24, i64 -4
  %26 = load i32, ptr %25, align 4, !tbaa !184
  %.not6.i.i.i.i.i.i.i = icmp eq i32 %26, 0
  br i1 %.not6.i.i.i.i.i.i.i, label %_ZN6vectorISt4pairIj8rationalELb1EjE16destroy_elementsEv.exit.i.i.i, label %.lr.ph.i.i.i.i.i.i.i

.lr.ph.i.i.i.i.i.i.i:                             ; preds = %_ZNK6vectorISt4pairIj8rationalELb1EjE4sizeEv.exit.i.i.i.i, %_ZSt8_DestroyISt4pairIj8rationalEEvPT_.exit.i.i.i.i.i.i.i
  %.08.i.i.i.i.i.i.i = phi i32 [ %34, %_ZSt8_DestroyISt4pairIj8rationalEEvPT_.exit.i.i.i.i.i.i.i ], [ %26, %_ZNK6vectorISt4pairIj8rationalELb1EjE4sizeEv.exit.i.i.i.i ]
  %.047.i.i.i.i.i.i.i = phi ptr [ %33, %_ZSt8_DestroyISt4pairIj8rationalEEvPT_.exit.i.i.i.i.i.i.i ], [ %24, %_ZNK6vectorISt4pairIj8rationalELb1EjE4sizeEv.exit.i.i.i.i ]
  %27 = getelementptr inbounds nuw i8, ptr %.047.i.i.i.i.i.i.i, i64 8
  %28 = load ptr, ptr @_ZN8rational13g_mpq_managerE, align 8, !tbaa !234
  invoke void @_ZN11mpz_managerILb1EE3delEPS0_R3mpz(ptr noundef %28, ptr noundef nonnull align 8 dereferenceable(32) %27)
          to label %.noexc.i.i.i.i.i.i.i.i.i.i.i unwind label %30

.noexc.i.i.i.i.i.i.i.i.i.i.i:                     ; preds = %.lr.ph.i.i.i.i.i.i.i
  %29 = getelementptr inbounds nuw i8, ptr %.047.i.i.i.i.i.i.i, i64 24
  invoke void @_ZN11mpz_managerILb1EE3delEPS0_R3mpz(ptr noundef %28, ptr noundef nonnull align 8 dereferenceable(16) %29)
          to label %_ZSt8_DestroyISt4pairIj8rationalEEvPT_.exit.i.i.i.i.i.i.i unwind label %30

30:                                               ; preds = %.noexc.i.i.i.i.i.i.i.i.i.i.i, %.lr.ph.i.i.i.i.i.i.i
  %31 = landingpad { ptr, i32 }
          catch ptr null
  %32 = extractvalue { ptr, i32 } %31, 0
  call void @__clang_call_terminate(ptr %32) #27
  unreachable

_ZSt8_DestroyISt4pairIj8rationalEEvPT_.exit.i.i.i.i.i.i.i: ; preds = %.noexc.i.i.i.i.i.i.i.i.i.i.i
  %33 = getelementptr inbounds nuw i8, ptr %.047.i.i.i.i.i.i.i, i64 40
  %34 = add i32 %.08.i.i.i.i.i.i.i, -1
  %.not.i.i.i.i.i.i.i = icmp eq i32 %34, 0
  br i1 %.not.i.i.i.i.i.i.i, label %_ZN6vectorISt4pairIj8rationalELb1EjE16destroy_elementsEv.exit.loopexit.i.i.i, label %.lr.ph.i.i.i.i.i.i.i, !llvm.loop !385

_ZN6vectorISt4pairIj8rationalELb1EjE16destroy_elementsEv.exit.loopexit.i.i.i: ; preds = %_ZSt8_DestroyISt4pairIj8rationalEEvPT_.exit.i.i.i.i.i.i.i
  %.pre.i.i.i = load ptr, ptr %4, align 8, !tbaa !372
  br label %_ZN6vectorISt4pairIj8rationalELb1EjE16destroy_elementsEv.exit.i.i.i

_ZN6vectorISt4pairIj8rationalELb1EjE16destroy_elementsEv.exit.i.i.i: ; preds = %_ZN6vectorISt4pairIj8rationalELb1EjE16destroy_elementsEv.exit.loopexit.i.i.i, %_ZNK6vectorISt4pairIj8rationalELb1EjE4sizeEv.exit.i.i.i.i
  %35 = phi ptr [ %.pre.i.i.i, %_ZN6vectorISt4pairIj8rationalELb1EjE16destroy_elementsEv.exit.loopexit.i.i.i ], [ %24, %_ZNK6vectorISt4pairIj8rationalELb1EjE4sizeEv.exit.i.i.i.i ]
  %36 = getelementptr inbounds i8, ptr %35, i64 -8
  invoke void @_ZN6memory10deallocateEPv(ptr noundef nonnull %36)
          to label %_ZN2lp11explanationD2Ev.exit unwind label %37

37:                                               ; preds = %_ZN6vectorISt4pairIj8rationalELb1EjE16destroy_elementsEv.exit.i.i.i
  %38 = landingpad { ptr, i32 }
          catch ptr null
  %39 = extractvalue { ptr, i32 } %38, 0
  call void @__clang_call_terminate(ptr %39) #27
  unreachable

_ZN2lp11explanationD2Ev.exit:                     ; preds = %_ZN14core_hashtableI18default_hash_entryIjE6u_hash4u_eqED2Ev.exit.i, %_ZN6vectorISt4pairIj8rationalELb1EjE16destroy_elementsEv.exit.i.i.i
  call void @llvm.lifetime.end.p0(i64 32, ptr nonnull %4) #26
  ret void

40:                                               ; preds = %15, %_ZN2lp11explanationC2Ev.exit
  %41 = landingpad { ptr, i32 }
          cleanup
  call void @_ZN2lp11explanationD2Ev(ptr noundef nonnull align 8 dereferenceable(32) %4) #26
  call void @llvm.lifetime.end.p0(i64 32, ptr nonnull %4) #26
  br label %common.resume
}